	.file	"suma.cpp"
	.text
	.local	_ZStL8__ioinit
	.comm	_ZStL8__ioinit,1,1
	.globl	_Z10SumaMaximaPii
	.type	_Z10SumaMaximaPii, @function
_Z10SumaMaximaPii:
.LFB1731:
	.cfi_startproc
	endbr64
	pushq	%rbp
	.cfi_def_cfa_offset 16
	.cfi_offset 6, -16
	movq	%rsp, %rbp
	.cfi_def_cfa_register 6
	subq	$64, %rsp
	movq	%rdi, -56(%rbp)
	movl	%esi, -60(%rbp)
	movq	%fs:40, %rax
	movq	%rax, -8(%rbp)
	xorl	%eax, %eax
	movl	$0, -40(%rbp)
	movl	$0, -36(%rbp)
	movl	-60(%rbp), %eax
	cltq
	leaq	0(,%rax,4), %rdx
	movq	-56(%rbp), %rax
	addq	%rdx, %rax
	movq	%rax, -16(%rbp)
	movq	-56(%rbp), %rax
	movq	%rax, -24(%rbp)
	jmp	.L2
.L5:
	movq	-24(%rbp), %rax
	movl	(%rax), %eax
	movl	%eax, -28(%rbp)
	movl	-36(%rbp), %eax
	testl	%eax, %eax
	jle	.L3
	movl	-36(%rbp), %edx
	movl	-28(%rbp), %eax
	addl	%edx, %eax
	movl	%eax, -36(%rbp)
	jmp	.L4
.L3:
	movl	-28(%rbp), %eax
	movl	%eax, -36(%rbp)
.L4:
	leaq	-36(%rbp), %rdx
	leaq	-40(%rbp), %rax
	movq	%rdx, %rsi
	movq	%rax, %rdi
	call	_ZSt3maxIiERKT_S2_S2_
	movl	(%rax), %eax
	movl	%eax, -40(%rbp)
	addq	$4, -24(%rbp)
.L2:
	movq	-24(%rbp), %rax
	cmpq	-16(%rbp), %rax
	jb	.L5
	movl	$0, -32(%rbp)
	leaq	-32(%rbp), %rdx
	leaq	-40(%rbp), %rax
	movq	%rdx, %rsi
	movq	%rax, %rdi
	call	_ZSt3maxIiERKT_S2_S2_
	movl	(%rax), %eax
	movq	-8(%rbp), %rdx
	subq	%fs:40, %rdx
	je	.L7
	call	__stack_chk_fail@PLT
.L7:
	leave
	.cfi_def_cfa 7, 8
	ret
	.cfi_endproc
.LFE1731:
	.size	_Z10SumaMaximaPii, .-_Z10SumaMaximaPii
	.globl	_Z13SumaMaximaRevPii
	.type	_Z13SumaMaximaRevPii, @function
_Z13SumaMaximaRevPii:
.LFB1732:
	.cfi_startproc
	endbr64
	pushq	%rbp
	.cfi_def_cfa_offset 16
	.cfi_offset 6, -16
	movq	%rsp, %rbp
	.cfi_def_cfa_register 6
	movq	%rdi, -24(%rbp)
	movl	%esi, -28(%rbp)
	movl	$0, -8(%rbp)
	movl	$0, -4(%rbp)
	nop
	popq	%rbp
	.cfi_def_cfa 7, 8
	ret
	.cfi_endproc
.LFE1732:
	.size	_Z13SumaMaximaRevPii, .-_Z13SumaMaximaRevPii
	.globl	main
	.type	main, @function
main:
.LFB1733:
	.cfi_startproc
	endbr64
	pushq	%rbp
	.cfi_def_cfa_offset 16
	.cfi_offset 6, -16
	movq	%rsp, %rbp
	.cfi_def_cfa_register 6
	pushq	%rbx
	subq	$40, %rsp
	.cfi_offset 3, -24
	movq	%fs:40, %rax
	movq	%rax, -24(%rbp)
	xorl	%eax, %eax
	movq	%rsp, %rax
	movq	%rax, %rbx
	movl	$12, -44(%rbp)
	movl	-44(%rbp), %ecx
	movslq	%ecx, %rax
	subq	$1, %rax
	movq	%rax, -40(%rbp)
	movslq	%ecx, %rax
	movq	%rax, %r8
	movl	$0, %r9d
	movslq	%ecx, %rax
	movq	%rax, %rsi
	movl	$0, %edi
	movslq	%ecx, %rax
	leaq	0(,%rax,4), %rdx
	movl	$16, %eax
	subq	$1, %rax
	addq	%rdx, %rax
	movl	$16, %edi
	movl	$0, %edx
	divq	%rdi
	imulq	$16, %rax, %rax
	movq	%rax, %rsi
	andq	$-4096, %rsi
	movq	%rsp, %rdx
	subq	%rsi, %rdx
.L10:
	cmpq	%rdx, %rsp
	je	.L11
	subq	$4096, %rsp
	orq	$0, 4088(%rsp)
	jmp	.L10
.L11:
	movq	%rax, %rdx
	andl	$4095, %edx
	subq	%rdx, %rsp
	movq	%rax, %rdx
	andl	$4095, %edx
	testq	%rdx, %rdx
	je	.L12
	andl	$4095, %eax
	subq	$8, %rax
	addq	%rsp, %rax
	orq	$0, (%rax)
.L12:
	movq	%rsp, %rax
	addq	$3, %rax
	shrq	$2, %rax
	salq	$2, %rax
	movq	%rax, -32(%rbp)
	movq	-32(%rbp), %rax
	movslq	%ecx, %rdx
	subq	$1, %rdx
	movl	$-30, (%rax)
	addq	$4, %rax
	subq	$1, %rdx
	movl	$-2, (%rax)
	addq	$4, %rax
	subq	$1, %rdx
	movl	$-5, (%rax)
	addq	$4, %rax
	subq	$1, %rdx
	movl	$-1, (%rax)
	addq	$4, %rax
	subq	$1, %rdx
	movl	$-10, (%rax)
	addq	$4, %rax
	subq	$1, %rdx
	movl	$-8, (%rax)
	addq	$4, %rax
	subq	$1, %rdx
	movl	$-69, (%rax)
	addq	$4, %rax
	subq	$1, %rdx
	movl	$-1, (%rax)
	addq	$4, %rax
	subq	$1, %rdx
	movl	$-2, (%rax)
	addq	$4, %rax
	leaq	-1(%rdx), %rcx
	movl	$-3, (%rax)
	leaq	4(%rax), %rdx
	leaq	-1(%rcx), %rax
	jmp	.L13
.L14:
	movl	$0, (%rdx)
	addq	$4, %rdx
	subq	$1, %rax
.L13:
	testq	%rax, %rax
	jns	.L14
	movl	-44(%rbp), %edx
	movq	-32(%rbp), %rax
	movl	%edx, %esi
	movq	%rax, %rdi
	call	_Z10SumaMaximaPii
	movl	%eax, %esi
	leaq	_ZSt4cout(%rip), %rax
	movq	%rax, %rdi
	call	_ZNSolsEi@PLT
	movq	_ZSt4endlIcSt11char_traitsIcEERSt13basic_ostreamIT_T0_ES6_@GOTPCREL(%rip), %rdx
	movq	%rdx, %rsi
	movq	%rax, %rdi
	call	_ZNSolsEPFRSoS_E@PLT
	movq	%rbx, %rsp
	movl	$0, %eax
	movq	-24(%rbp), %rdx
	subq	%fs:40, %rdx
	je	.L16
	call	__stack_chk_fail@PLT
.L16:
	movq	-8(%rbp), %rbx
	leave
	.cfi_def_cfa 7, 8
	ret
	.cfi_endproc
.LFE1733:
	.size	main, .-main
	.section	.text._ZSt3maxIiERKT_S2_S2_,"axG",@progbits,_ZSt3maxIiERKT_S2_S2_,comdat
	.weak	_ZSt3maxIiERKT_S2_S2_
	.type	_ZSt3maxIiERKT_S2_S2_, @function
_ZSt3maxIiERKT_S2_S2_:
.LFB1994:
	.cfi_startproc
	endbr64
	pushq	%rbp
	.cfi_def_cfa_offset 16
	.cfi_offset 6, -16
	movq	%rsp, %rbp
	.cfi_def_cfa_register 6
	movq	%rdi, -8(%rbp)
	movq	%rsi, -16(%rbp)
	movq	-8(%rbp), %rax
	movl	(%rax), %edx
	movq	-16(%rbp), %rax
	movl	(%rax), %eax
	cmpl	%eax, %edx
	jge	.L18
	movq	-16(%rbp), %rax
	jmp	.L19
.L18:
	movq	-8(%rbp), %rax
.L19:
	popq	%rbp
	.cfi_def_cfa 7, 8
	ret
	.cfi_endproc
.LFE1994:
	.size	_ZSt3maxIiERKT_S2_S2_, .-_ZSt3maxIiERKT_S2_S2_
	.text
	.type	_Z41__static_initialization_and_destruction_0ii, @function
_Z41__static_initialization_and_destruction_0ii:
.LFB2234:
	.cfi_startproc
	endbr64
	pushq	%rbp
	.cfi_def_cfa_offset 16
	.cfi_offset 6, -16
	movq	%rsp, %rbp
	.cfi_def_cfa_register 6
	subq	$16, %rsp
	movl	%edi, -4(%rbp)
	movl	%esi, -8(%rbp)
	cmpl	$1, -4(%rbp)
	jne	.L22
	cmpl	$65535, -8(%rbp)
	jne	.L22
	leaq	_ZStL8__ioinit(%rip), %rax
	movq	%rax, %rdi
	call	_ZNSt8ios_base4InitC1Ev@PLT
	leaq	__dso_handle(%rip), %rax
	movq	%rax, %rdx
	leaq	_ZStL8__ioinit(%rip), %rax
	movq	%rax, %rsi
	movq	_ZNSt8ios_base4InitD1Ev@GOTPCREL(%rip), %rax
	movq	%rax, %rdi
	call	__cxa_atexit@PLT
.L22:
	nop
	leave
	.cfi_def_cfa 7, 8
	ret
	.cfi_endproc
.LFE2234:
	.size	_Z41__static_initialization_and_destruction_0ii, .-_Z41__static_initialization_and_destruction_0ii
	.type	_GLOBAL__sub_I__Z10SumaMaximaPii, @function
_GLOBAL__sub_I__Z10SumaMaximaPii:
.LFB2235:
	.cfi_startproc
	endbr64
	pushq	%rbp
	.cfi_def_cfa_offset 16
	.cfi_offset 6, -16
	movq	%rsp, %rbp
	.cfi_def_cfa_register 6
	movl	$65535, %esi
	movl	$1, %edi
	call	_Z41__static_initialization_and_destruction_0ii
	popq	%rbp
	.cfi_def_cfa 7, 8
	ret
	.cfi_endproc
.LFE2235:
	.size	_GLOBAL__sub_I__Z10SumaMaximaPii, .-_GLOBAL__sub_I__Z10SumaMaximaPii
	.section	.init_array,"aw"
	.align 8
	.quad	_GLOBAL__sub_I__Z10SumaMaximaPii
	.hidden	__dso_handle
	.ident	"GCC: (Ubuntu 11.4.0-1ubuntu1~22.04) 11.4.0"
	.section	.note.GNU-stack,"",@progbits
	.section	.note.gnu.property,"a"
	.align 8
	.long	1f - 0f
	.long	4f - 1f
	.long	5
0:
	.string	"GNU"
1:
	.align 8
	.long	0xc0000002
	.long	3f - 2f
2:
	.long	0x3
3:
	.align 8
4:
